target datalayout = "e-m:e-p270:32:32-p271:32:32-p272:64:64-i64:64-i128:128-f80:128-n8:16:32:64-S128"
target triple = "x86_64-pc-linux-gnu"

%"class.cvc5::internal::NodeTemplate.0" = type { ptr }
%"class.cvc5::internal::NodeTemplate" = type { ptr }
%"class.cvc5::internal::expr::NodeValue" = type { i64, i64, ptr, [0 x ptr] }
%"struct.cvc5::internal::BitVectorSignExtend" = type { i32 }
%"class.cvc5::internal::NodeBuilder" = type <{ %"class.cvc5::internal::expr::NodeValue", [10 x ptr], ptr, ptr, i32, [4 x i8] }>

; Function Attrs: mustprogress nounwind uwtable
define linkonce_odr hidden noundef ptr @_ZNK4cvc58internal4expr9NodeValue14getNodeManagerEv(ptr noundef nonnull align 8 dereferenceable(24) %0) #8 comdat align 2 {
  %2 = alloca ptr, align 8
  store ptr %0, ptr %2, align 8, !tbaa !29
  %3 = load ptr, ptr %2, align 8
  %4 = getelementptr inbounds nuw %"class.cvc5::internal::expr::NodeValue", ptr %3, i32 0, i32 2
  %5 = load ptr, ptr %4, align 8, !tbaa !275
  ret ptr %5
}

; Function Attrs: inlinehint mustprogress nounwind uwtable
define linkonce_odr hidden void @_ZNK4cvc58internal12NodeTemplateILb0EE21assertTNodeNotExpiredEv(ptr noundef nonnull align 8 dereferenceable(8) %0) #6 comdat align 2 {
  %2 = alloca ptr, align 8
  store ptr %0, ptr %2, align 8, !tbaa !3
  ret void
}

; Function Attrs: inlinehint mustprogress nounwind uwtable
define linkonce_odr hidden noundef i32 @_ZNK4cvc58internal12NodeTemplateILb0EE7getKindEv(ptr noundef nonnull align 8 dereferenceable(8) %0) #6 comdat align 2 {
  %2 = alloca ptr, align 8
  store ptr %0, ptr %2, align 8, !tbaa !3
  %3 = load ptr, ptr %2, align 8
  call void @_ZNK4cvc58internal12NodeTemplateILb0EE21assertTNodeNotExpiredEv(ptr noundef nonnull align 8 dereferenceable(8) %3)
  %4 = getelementptr inbounds nuw %"class.cvc5::internal::NodeTemplate", ptr %3, i32 0, i32 0
  %5 = load ptr, ptr %4, align 8, !tbaa !10
  %6 = getelementptr inbounds nuw %"class.cvc5::internal::expr::NodeValue", ptr %5, i32 0, i32 1
  %7 = load i64, ptr %6, align 8
  %8 = and i64 %7, 1023
  %9 = trunc i64 %8 to i32
  ret i32 %9
}

; Function Attrs: inlinehint mustprogress uwtable
define linkonce_odr hidden noundef i32 @_ZN4cvc58internal11NodeManager14operatorToKindENS0_12NodeTemplateILb0EEE(ptr noundef %0) #7 comdat align 2 {
  %2 = alloca ptr, align 8
  store ptr %0, ptr %2, align 8, !tbaa !3
  %3 = getelementptr inbounds nuw %"class.cvc5::internal::NodeTemplate", ptr %0, i32 0, i32 0
  %4 = load ptr, ptr %3, align 8, !tbaa !10
  %5 = call noundef i32 @_ZN4cvc58internal4kind14operatorToKindEPNS0_4expr9NodeValueE(ptr noundef %4)
  ret i32 %5
}

; Function Attrs: mustprogress uwtable
define linkonce_odr hidden noundef ptr @_ZNK4cvc58internal12NodeTemplateILb0EE14getNodeManagerEv(ptr noundef nonnull align 8 dereferenceable(8) %0) #4 comdat align 2 {
  %2 = alloca ptr, align 8
  store ptr %0, ptr %2, align 8, !tbaa !3
  %3 = load ptr, ptr %2, align 8
  call void @_ZNK4cvc58internal12NodeTemplateILb0EE21assertTNodeNotExpiredEv(ptr noundef nonnull align 8 dereferenceable(8) %3)
  %4 = getelementptr inbounds nuw %"class.cvc5::internal::NodeTemplate", ptr %3, i32 0, i32 0
  %5 = load ptr, ptr %4, align 8, !tbaa !10
  %6 = call noundef ptr @_ZNK4cvc58internal4expr9NodeValue14getNodeManagerEv(ptr noundef nonnull align 8 dereferenceable(24) %5)
  ret ptr %6
}

; Function Attrs: mustprogress nounwind uwtable
define linkonce_odr hidden void @_ZN4cvc58internal12NodeTemplateILb0EED2Ev(ptr noundef nonnull align 8 dereferenceable(8) %0) unnamed_addr #8 comdat align 2 {
  %2 = alloca ptr, align 8
  store ptr %0, ptr %2, align 8, !tbaa !3
  ret void
}

; Function Attrs: inlinehint mustprogress uwtable
define linkonce_odr hidden void @_ZN4cvc58internal11NodeManager6mkNodeENS0_12NodeTemplateILb0EEES3_(ptr dead_on_unwind noalias writable sret(%"class.cvc5::internal::NodeTemplate.0") align 8 %0, ptr noundef %1, ptr noundef %2) #7 comdat align 2 personality ptr @__gxx_personality_v0 {
  %4 = alloca ptr, align 8
  %5 = alloca ptr, align 8
  %6 = alloca ptr, align 8
  %7 = alloca %"class.cvc5::internal::NodeBuilder", align 8
  %8 = alloca %"class.cvc5::internal::NodeTemplate", align 8
  %9 = alloca ptr, align 8
  %10 = alloca i32, align 4
  %11 = alloca %"class.cvc5::internal::NodeTemplate", align 8
  %12 = alloca %"class.cvc5::internal::NodeTemplate", align 8
  store ptr %0, ptr %4, align 8
  store ptr %1, ptr %5, align 8, !tbaa !3
  store ptr %2, ptr %6, align 8, !tbaa !3
  call void @llvm.lifetime.start.p0(i64 128, ptr %7) #3
  %13 = call noundef ptr @_ZNK4cvc58internal12NodeTemplateILb0EE14getNodeManagerEv(ptr noundef nonnull align 8 dereferenceable(8) %1)
  call void @_ZN4cvc58internal12NodeTemplateILb0EEC2ERKS2_(ptr noundef nonnull align 8 dereferenceable(8) %8, ptr noundef nonnull align 8 dereferenceable(8) %1)
  %14 = invoke noundef i32 @_ZN4cvc58internal11NodeManager14operatorToKindENS0_12NodeTemplateILb0EEE(ptr noundef %8)
          to label %15 unwind label %24

15:                                               ; preds = %3
  invoke void @_ZN4cvc58internal11NodeBuilderC1EPNS0_11NodeManagerENS0_4kind6Kind_tE(ptr noundef nonnull align 8 dereferenceable(124) %7, ptr noundef %13, i32 noundef %14)
          to label %16 unwind label %24

16:                                               ; preds = %15
  call void @_ZN4cvc58internal12NodeTemplateILb0EED2Ev(ptr noundef nonnull align 8 dereferenceable(8) %8) #3
  %17 = invoke noundef i32 @_ZNK4cvc58internal12NodeTemplateILb0EE7getKindEv(ptr noundef nonnull align 8 dereferenceable(8) %1)
          to label %18 unwind label %28

18:                                               ; preds = %16
  %19 = icmp ne i32 %17, 4
  br i1 %19, label %20, label %36

20:                                               ; preds = %18
  invoke void @_ZN4cvc58internal12NodeTemplateILb0EEC2ERKS2_(ptr noundef nonnull align 8 dereferenceable(8) %11, ptr noundef nonnull align 8 dereferenceable(8) %1)
          to label %21 unwind label %28

21:                                               ; preds = %20
  %22 = invoke noundef nonnull align 8 dereferenceable(124) ptr @_ZN4cvc58internal11NodeBuilderlsENS0_12NodeTemplateILb0EEE(ptr noundef nonnull align 8 dereferenceable(124) %7, ptr noundef %11)
          to label %23 unwind label %32

23:                                               ; preds = %21
  call void @_ZN4cvc58internal12NodeTemplateILb0EED2Ev(ptr noundef nonnull align 8 dereferenceable(8) %11) #3
  br label %36

24:                                               ; preds = %15, %3
  %25 = landingpad { ptr, i32 }
          cleanup
  %26 = extractvalue { ptr, i32 } %25, 0
  store ptr %26, ptr %9, align 8
  %27 = extractvalue { ptr, i32 } %25, 1
  store i32 %27, ptr %10, align 4
  call void @_ZN4cvc58internal12NodeTemplateILb0EED2Ev(ptr noundef nonnull align 8 dereferenceable(8) %8) #3
  br label %46

28:                                               ; preds = %39, %36, %20, %16
  %29 = landingpad { ptr, i32 }
          cleanup
  %30 = extractvalue { ptr, i32 } %29, 0
  store ptr %30, ptr %9, align 8
  %31 = extractvalue { ptr, i32 } %29, 1
  store i32 %31, ptr %10, align 4
  br label %45

32:                                               ; preds = %21
  %33 = landingpad { ptr, i32 }
          cleanup
  %34 = extractvalue { ptr, i32 } %33, 0
  store ptr %34, ptr %9, align 8
  %35 = extractvalue { ptr, i32 } %33, 1
  store i32 %35, ptr %10, align 4
  call void @_ZN4cvc58internal12NodeTemplateILb0EED2Ev(ptr noundef nonnull align 8 dereferenceable(8) %11) #3
  br label %45

36:                                               ; preds = %23, %18
  invoke void @_ZN4cvc58internal12NodeTemplateILb0EEC2ERKS2_(ptr noundef nonnull align 8 dereferenceable(8) %12, ptr noundef nonnull align 8 dereferenceable(8) %2)
          to label %37 unwind label %28

37:                                               ; preds = %36
  %38 = invoke noundef nonnull align 8 dereferenceable(124) ptr @_ZN4cvc58internal11NodeBuilderlsENS0_12NodeTemplateILb0EEE(ptr noundef nonnull align 8 dereferenceable(124) %7, ptr noundef %12)
          to label %39 unwind label %41

39:                                               ; preds = %37
  call void @_ZN4cvc58internal12NodeTemplateILb0EED2Ev(ptr noundef nonnull align 8 dereferenceable(8) %12) #3
  invoke void @_ZN4cvc58internal11NodeBuilder13constructNodeEv(ptr dead_on_unwind writable sret(%"class.cvc5::internal::NodeTemplate.0") align 8 %0, ptr noundef nonnull align 8 dereferenceable(124) %7)
          to label %40 unwind label %28

40:                                               ; preds = %39
  call void @_ZN4cvc58internal11NodeBuilderD1Ev(ptr noundef nonnull align 8 dereferenceable(124) %7) #3
  call void @llvm.lifetime.end.p0(i64 128, ptr %7) #3
  ret void

41:                                               ; preds = %37
  %42 = landingpad { ptr, i32 }
          cleanup
  %43 = extractvalue { ptr, i32 } %42, 0
  store ptr %43, ptr %9, align 8
  %44 = extractvalue { ptr, i32 } %42, 1
  store i32 %44, ptr %10, align 4
  call void @_ZN4cvc58internal12NodeTemplateILb0EED2Ev(ptr noundef nonnull align 8 dereferenceable(8) %12) #3
  br label %45

45:                                               ; preds = %41, %32, %28
  call void @_ZN4cvc58internal11NodeBuilderD1Ev(ptr noundef nonnull align 8 dereferenceable(124) %7) #3
  br label %46

46:                                               ; preds = %45, %24
  call void @llvm.lifetime.end.p0(i64 128, ptr %7) #3
  br label %47

47:                                               ; preds = %46
  %48 = load ptr, ptr %9, align 8
  %49 = load i32, ptr %10, align 4
  %50 = insertvalue { ptr, i32 } poison, ptr %48, 0
  %51 = insertvalue { ptr, i32 } %50, i32 %49, 1
  resume { ptr, i32 } %51
}

; Function Attrs: mustprogress nounwind uwtable
define linkonce_odr hidden void @_ZN4cvc58internal12NodeTemplateILb0EEC2ERKS2_(ptr noundef nonnull align 8 dereferenceable(8) %0, ptr noundef nonnull align 8 dereferenceable(8) %1) unnamed_addr #8 comdat align 2 {
  %3 = alloca ptr, align 8
  %4 = alloca ptr, align 8
  store ptr %0, ptr %3, align 8, !tbaa !3
  store ptr %1, ptr %4, align 8, !tbaa !3
  %5 = load ptr, ptr %3, align 8
  %6 = load ptr, ptr %4, align 8, !tbaa !3
  %7 = getelementptr inbounds nuw %"class.cvc5::internal::NodeTemplate", ptr %6, i32 0, i32 0
  %8 = load ptr, ptr %7, align 8, !tbaa !10
  %9 = getelementptr inbounds nuw %"class.cvc5::internal::NodeTemplate", ptr %5, i32 0, i32 0
  store ptr %8, ptr %9, align 8, !tbaa !10
  ret void
}

; Function Attrs: mustprogress nounwind uwtable
define linkonce_odr hidden void @_ZN4cvc58internal12NodeTemplateILb0EEC2ERKNS1_ILb1EEE(ptr noundef nonnull align 8 dereferenceable(8) %0, ptr noundef nonnull align 8 dereferenceable(8) %1) unnamed_addr #8 comdat align 2 {
  %3 = alloca ptr, align 8
  %4 = alloca ptr, align 8
  store ptr %0, ptr %3, align 8, !tbaa !3
  store ptr %1, ptr %4, align 8, !tbaa !30
  %5 = load ptr, ptr %3, align 8
  %6 = load ptr, ptr %4, align 8, !tbaa !30
  %7 = getelementptr inbounds nuw %"class.cvc5::internal::NodeTemplate.0", ptr %6, i32 0, i32 0
  %8 = load ptr, ptr %7, align 8, !tbaa !32
  %9 = getelementptr inbounds nuw %"class.cvc5::internal::NodeTemplate", ptr %5, i32 0, i32 0
  store ptr %8, ptr %9, align 8, !tbaa !10
  ret void
}

; Function Attrs: mustprogress nounwind uwtable
define linkonce_odr hidden void @_ZN4cvc58internal19BitVectorSignExtendC2Ej(ptr noundef nonnull align 4 dereferenceable(4) %0, i32 noundef %1) unnamed_addr #8 comdat align 2 {
  %3 = alloca ptr, align 8
  %4 = alloca i32, align 4
  store ptr %0, ptr %3, align 8, !tbaa !70
  store i32 %1, ptr %4, align 4, !tbaa !19
  %5 = load ptr, ptr %3, align 8
  %6 = getelementptr inbounds nuw %"struct.cvc5::internal::BitVectorSignExtend", ptr %5, i32 0, i32 0
  %7 = load i32, ptr %4, align 4, !tbaa !19
  store i32 %7, ptr %6, align 4, !tbaa !35
  ret void
}

; Function Attrs: mustprogress uwtable
define hidden void @_ZN4cvc58internal6theory2bv5utils12mkSignExtendENS0_12NodeTemplateILb0EEEj(ptr dead_on_unwind noalias writable sret(%"class.cvc5::internal::NodeTemplate.0") align 8 %0, ptr noundef %1, i32 noundef %2) #4 personality ptr @__gxx_personality_v0 {
  %4 = alloca ptr, align 8
  %5 = alloca ptr, align 8
  %6 = alloca i32, align 4
  %7 = alloca ptr, align 8
  %8 = alloca %"class.cvc5::internal::NodeTemplate.0", align 8
  %9 = alloca %"struct.cvc5::internal::BitVectorSignExtend", align 4
  %10 = alloca %"class.cvc5::internal::NodeTemplate", align 8
  %11 = alloca ptr, align 8
  %12 = alloca i32, align 4
  %13 = alloca %"class.cvc5::internal::NodeTemplate", align 8
  store ptr %0, ptr %4, align 8
  store ptr %1, ptr %5, align 8, !tbaa !3
  store i32 %2, ptr %6, align 4, !tbaa !19
  call void @llvm.lifetime.start.p0(i64 8, ptr %7) #3
  %14 = call noundef ptr @_ZN4cvc58internal11NodeManager9currentNMEv()
  store ptr %14, ptr %7, align 8, !tbaa !54
  call void @llvm.lifetime.start.p0(i64 8, ptr %8) #3
  %15 = load ptr, ptr %7, align 8, !tbaa !54
  call void @llvm.lifetime.start.p0(i64 4, ptr %9) #3
  %16 = load i32, ptr %6, align 4, !tbaa !19
  call void @_ZN4cvc58internal19BitVectorSignExtendC2Ej(ptr noundef nonnull align 4 dereferenceable(4) %9, i32 noundef %16)
  call void @_ZN4cvc58internal11NodeManager7mkConstINS0_19BitVectorSignExtendEEENS0_12NodeTemplateILb1EEERKT_(ptr dead_on_unwind writable sret(%"class.cvc5::internal::NodeTemplate.0") align 8 %8, ptr noundef nonnull align 8 dereferenceable(3560) %15, ptr noundef nonnull align 4 dereferenceable(4) %9)
  call void @llvm.lifetime.end.p0(i64 4, ptr %9) #3
  invoke void @_ZN4cvc58internal12NodeTemplateILb0EEC2ERKNS1_ILb1EEE(ptr noundef nonnull align 8 dereferenceable(8) %10, ptr noundef nonnull align 8 dereferenceable(8) %8)
          to label %17 unwind label %20

17:                                               ; preds = %3
  invoke void @_ZN4cvc58internal12NodeTemplateILb0EEC2ERKS2_(ptr noundef nonnull align 8 dereferenceable(8) %13, ptr noundef nonnull align 8 dereferenceable(8) %1)
          to label %18 unwind label %24

18:                                               ; preds = %17
  invoke void @_ZN4cvc58internal11NodeManager6mkNodeENS0_12NodeTemplateILb0EEES3_(ptr dead_on_unwind writable sret(%"class.cvc5::internal::NodeTemplate.0") align 8 %0, ptr noundef %10, ptr noundef %13)
          to label %19 unwind label %28

19:                                               ; preds = %18
  call void @_ZN4cvc58internal12NodeTemplateILb0EED2Ev(ptr noundef nonnull align 8 dereferenceable(8) %13) #3
  call void @_ZN4cvc58internal12NodeTemplateILb0EED2Ev(ptr noundef nonnull align 8 dereferenceable(8) %10) #3
  call void @_ZN4cvc58internal12NodeTemplateILb1EED2Ev(ptr noundef nonnull align 8 dereferenceable(8) %8) #3
  call void @llvm.lifetime.end.p0(i64 8, ptr %8) #3
  call void @llvm.lifetime.end.p0(i64 8, ptr %7) #3
  ret void

20:                                               ; preds = %3
  %21 = landingpad { ptr, i32 }
          cleanup
  %22 = extractvalue { ptr, i32 } %21, 0
  store ptr %22, ptr %11, align 8
  %23 = extractvalue { ptr, i32 } %21, 1
  store i32 %23, ptr %12, align 4
  br label %33

24:                                               ; preds = %17
  %25 = landingpad { ptr, i32 }
          cleanup
  %26 = extractvalue { ptr, i32 } %25, 0
  store ptr %26, ptr %11, align 8
  %27 = extractvalue { ptr, i32 } %25, 1
  store i32 %27, ptr %12, align 4
  br label %32

28:                                               ; preds = %18
  %29 = landingpad { ptr, i32 }
          cleanup
  %30 = extractvalue { ptr, i32 } %29, 0
  store ptr %30, ptr %11, align 8
  %31 = extractvalue { ptr, i32 } %29, 1
  store i32 %31, ptr %12, align 4
  call void @_ZN4cvc58internal12NodeTemplateILb0EED2Ev(ptr noundef nonnull align 8 dereferenceable(8) %13) #3
  br label %32

32:                                               ; preds = %28, %24
  call void @_ZN4cvc58internal12NodeTemplateILb0EED2Ev(ptr noundef nonnull align 8 dereferenceable(8) %10) #3
  br label %33

33:                                               ; preds = %32, %20
  call void @_ZN4cvc58internal12NodeTemplateILb1EED2Ev(ptr noundef nonnull align 8 dereferenceable(8) %8) #3
  call void @llvm.lifetime.end.p0(i64 8, ptr %8) #3
  call void @llvm.lifetime.end.p0(i64 8, ptr %7) #3
  br label %34

34:                                               ; preds = %33
  %35 = load ptr, ptr %11, align 8
  %36 = load i32, ptr %12, align 4
  %37 = insertvalue { ptr, i32 } poison, ptr %35, 0
  %38 = insertvalue { ptr, i32 } %37, i32 %36, 1
  resume { ptr, i32 } %38
}