; Function Attrs: mustprogress uwtable
define hidden void @_ZN4cvc58internal6theory2bv5utils12mkSignExtendENS0_12NodeTemplateILb0EEEj(ptr dead_on_unwind noalias writable sret(%"class.cvc5::internal::NodeTemplate.0") align 8 %0, ptr noundef readonly captures(none) %1, i32 noundef %2) local_unnamed_addr #3 personality ptr @__gxx_personality_v0 {
  %4 = alloca %"class.cvc5::internal::NodeBuilder", align 8
  %5 = alloca %"class.cvc5::internal::NodeTemplate", align 8
  %6 = alloca %"class.cvc5::internal::NodeTemplate", align 8
  %7 = alloca %"class.cvc5::internal::NodeTemplate.0", align 8
  %8 = alloca %"struct.cvc5::internal::BitVectorSignExtend", align 4
  %9 = tail call noundef ptr @_ZN4cvc58internal11NodeManager9currentNMEv()
  call void @llvm.lifetime.start.p0(i64 8, ptr nonnull %7) #22
  call void @llvm.lifetime.start.p0(i64 4, ptr nonnull %8) #22
  store i32 %2, ptr %8, align 4, !tbaa !31
  call void @_ZN4cvc58internal11NodeManager7mkConstINS0_19BitVectorSignExtendEEENS0_12NodeTemplateILb1EEERKT_(ptr dead_on_unwind nonnull writable sret(%"class.cvc5::internal::NodeTemplate.0") align 8 %7, ptr noundef nonnull align 8 dereferenceable(3560) %9, ptr noundef nonnull align 4 dereferenceable(4) %8)
  call void @llvm.lifetime.end.p0(i64 4, ptr nonnull %8) #22
  %10 = load ptr, ptr %7, align 8, !tbaa !21
  %11 = load ptr, ptr %1, align 8, !tbaa !10
  call void @llvm.lifetime.start.p0(i64 8, ptr nonnull %5)
  call void @llvm.lifetime.start.p0(i64 8, ptr nonnull %6)
  call void @llvm.lifetime.start.p0(i64 128, ptr nonnull %4) #22, !noalias !137
  %12 = getelementptr inbounds nuw i8, ptr %10, i64 16
  %13 = load ptr, ptr %12, align 8, !tbaa !26, !noalias !137
  %14 = invoke noundef i32 @_ZN4cvc58internal4kind14operatorToKindEPNS0_4expr9NodeValueE(ptr noundef nonnull %10)
          to label %.noexc unwind label %44

.noexc:                                           ; preds = %3
  invoke void @_ZN4cvc58internal11NodeBuilderC1EPNS0_11NodeManagerENS0_4kind6Kind_tE(ptr noundef nonnull align 8 dereferenceable(124) %4, ptr noundef %13, i32 noundef %14)
          to label %.noexc3 unwind label %44

.noexc3:                                          ; preds = %.noexc
  %15 = getelementptr inbounds nuw i8, ptr %10, i64 8
  %16 = load i64, ptr %15, align 8, !noalias !137
  %17 = and i64 %16, 1023
  %.not.i = icmp eq i64 %17, 4
  br i1 %.not.i, label %24, label %18

18:                                               ; preds = %.noexc3
  store ptr %10, ptr %5, align 8, !tbaa !10, !noalias !137
  %19 = invoke noundef nonnull align 8 dereferenceable(124) ptr @_ZN4cvc58internal11NodeBuilderlsENS0_12NodeTemplateILb0EEE(ptr noundef nonnull align 8 dereferenceable(124) %4, ptr noundef nonnull %5)
          to label %24 unwind label %22, !noalias !137

20:                                               ; preds = %26
  %21 = landingpad { ptr, i32 }
          cleanup
  br label %29

22:                                               ; preds = %18
  %23 = landingpad { ptr, i32 }
          cleanup
  br label %29

24:                                               ; preds = %18, %.noexc3
  store ptr %11, ptr %6, align 8, !tbaa !10, !noalias !137
  %25 = invoke noundef nonnull align 8 dereferenceable(124) ptr @_ZN4cvc58internal11NodeBuilderlsENS0_12NodeTemplateILb0EEE(ptr noundef nonnull align 8 dereferenceable(124) %4, ptr noundef nonnull %6)
          to label %26 unwind label %27, !noalias !137

26:                                               ; preds = %24
  invoke void @_ZN4cvc58internal11NodeBuilder13constructNodeEv(ptr dead_on_unwind writable sret(%"class.cvc5::internal::NodeTemplate.0") align 8 %0, ptr noundef nonnull align 8 dereferenceable(124) %4)
          to label %30 unwind label %20

27:                                               ; preds = %24
  %28 = landingpad { ptr, i32 }
          cleanup
  br label %29

29:                                               ; preds = %27, %22, %20
  %.pn.i = phi { ptr, i32 } [ %21, %20 ], [ %28, %27 ], [ %23, %22 ]
  call void @_ZN4cvc58internal11NodeBuilderD1Ev(ptr noundef nonnull align 8 dereferenceable(124) %4) #22
  call void @llvm.lifetime.end.p0(i64 128, ptr nonnull %4) #22, !noalias !137
  br label %.body

30:                                               ; preds = %26
  call void @_ZN4cvc58internal11NodeBuilderD1Ev(ptr noundef nonnull align 8 dereferenceable(124) %4) #22
  call void @llvm.lifetime.end.p0(i64 128, ptr nonnull %4) #22, !noalias !137
  call void @llvm.lifetime.end.p0(i64 8, ptr nonnull %5)
  call void @llvm.lifetime.end.p0(i64 8, ptr nonnull %6)
  %31 = load ptr, ptr %7, align 8, !tbaa !21
  %32 = load i64, ptr %31, align 8
  %33 = and i64 %32, 1152920405095219200
  %.not.i.i = icmp eq i64 %33, 1152920405095219200
  br i1 %.not.i.i, label %_ZN4cvc58internal12NodeTemplateILb1EED2Ev.exit, label %34, !prof !9

34:                                               ; preds = %30
  %35 = add i64 %32, 1152920405095219200
  %36 = and i64 %35, 1152920405095219200
  %37 = and i64 %32, -1152920405095219201
  %38 = or disjoint i64 %36, %37
  store i64 %38, ptr %31, align 8
  %39 = icmp eq i64 %36, 0
  br i1 %39, label %40, label %_ZN4cvc58internal12NodeTemplateILb1EED2Ev.exit, !prof !9

40:                                               ; preds = %34
  invoke void @_ZN4cvc58internal4expr9NodeValue15markForDeletionEv(ptr noundef nonnull align 8 dereferenceable(24) %31)
          to label %_ZN4cvc58internal12NodeTemplateILb1EED2Ev.exit unwind label %41

41:                                               ; preds = %40
  %42 = landingpad { ptr, i32 }
          catch ptr null
  %43 = extractvalue { ptr, i32 } %42, 0
  call void @__clang_call_terminate(ptr %43) #23
  unreachable

_ZN4cvc58internal12NodeTemplateILb1EED2Ev.exit:   ; preds = %30, %34, %40
  call void @llvm.lifetime.end.p0(i64 8, ptr nonnull %7) #22
  ret void

44:                                               ; preds = %.noexc, %3
  %45 = landingpad { ptr, i32 }
          cleanup
  br label %.body

.body:                                            ; preds = %29, %44
  %eh.lpad-body = phi { ptr, i32 } [ %45, %44 ], [ %.pn.i, %29 ]
  call void @_ZN4cvc58internal12NodeTemplateILb1EED2Ev(ptr noundef nonnull align 8 dereferenceable(8) %7) #22
  call void @llvm.lifetime.end.p0(i64 8, ptr nonnull %7) #22
  resume { ptr, i32 } %eh.lpad-body
}